; Function Attrs: nounwind uwtable
define ptr @l___private_Std_Sync_Channel_0__Std_CloseableChannel_Zero_isClosed___rarg(ptr noundef %0, ptr noundef %1) #1 {
  tail call void @lean_inc_heartbeat() #7
  %3 = tail call noalias ptr @mi_malloc_small(i64 noundef 24) #7
  %4 = icmp eq ptr %3, null
  br i1 %4, label %5, label %lean_alloc_closure.exit

5:                                                ; preds = %2
  tail call void @lean_internal_panic_out_of_memory() #8
  unreachable

lean_alloc_closure.exit:                          ; preds = %2
  %6 = getelementptr inbounds nuw i8, ptr %3, i64 4
  store i32 1, ptr %3, align 4, !tbaa !4
  store i32 -184549352, ptr %6, align 4
  %7 = getelementptr inbounds nuw i8, ptr %3, i64 8
  store ptr @l_StateRefT_x27_get___at___private_Std_Sync_Channel_0__Std_CloseableChannel_Zero_isClosed___spec__1___rarg___boxed, ptr %7, align 8, !tbaa !10
  %8 = getelementptr inbounds nuw i8, ptr %3, i64 16
  store i16 2, ptr %8, align 8, !tbaa !12
  %9 = getelementptr inbounds nuw i8, ptr %3, i64 18
  store i16 0, ptr %9, align 2, !tbaa !12
  %10 = load ptr, ptr @l___private_Std_Sync_Channel_0__Std_CloseableChannel_Zero_isClosed___rarg___closed__1, align 8, !tbaa !10
  tail call void @lean_inc_heartbeat() #7
  %11 = tail call noalias ptr @mi_malloc_small(i64 noundef 40) #7
  %12 = icmp eq ptr %11, null
  br i1 %12, label %13, label %lean_alloc_closure.exit8

13:                                               ; preds = %lean_alloc_closure.exit
  tail call void @lean_internal_panic_out_of_memory() #8
  unreachable

lean_alloc_closure.exit8:                         ; preds = %lean_alloc_closure.exit
  %14 = getelementptr inbounds nuw i8, ptr %11, i64 4
  store i32 1, ptr %11, align 4, !tbaa !4
  store i32 -184549336, ptr %14, align 4
  %15 = getelementptr inbounds nuw i8, ptr %11, i64 8
  store ptr @l_ReaderT_bind___at___private_Std_Sync_Channel_0__Std_CloseableChannel_Zero_isClosed___spec__2___rarg, ptr %15, align 8, !tbaa !10
  %16 = getelementptr inbounds nuw i8, ptr %11, i64 16
  store i16 4, ptr %16, align 8, !tbaa !12
  %17 = getelementptr inbounds nuw i8, ptr %11, i64 18
  store i16 2, ptr %17, align 2, !tbaa !12
  %18 = getelementptr inbounds nuw i8, ptr %11, i64 24
  store ptr %3, ptr %18, align 8, !tbaa !10
  %19 = getelementptr inbounds nuw i8, ptr %11, i64 32
  store ptr %10, ptr %19, align 8, !tbaa !10
  %20 = tail call ptr @l_Std_Mutex_atomically___at___private_Std_Sync_Channel_0__Std_CloseableChannel_Zero_isClosed___spec__3___rarg(ptr noundef %0, ptr noundef nonnull %11, ptr noundef %1)
  ret ptr %20
}